{
   cv::circle(cv::_InputOutputArray const&, cv::Point_<int>, int, cv::Scalar_<double> const&, int, int, int)[Memcheck:Cond]
   Memcheck:Cond
   fun:_ZN2cv6circleERKNS_17_InputOutputArrayENS_6Point_IiEEiRKNS_7Scalar_IdEEiii
   fun:_Z14show_histogramRKNSt7__cxx1112basic_stringIcSt11char_traitsIcESaIcEEERKN2cv4Mat_IhEE
   fun:_Z19detectZfishFeaturesRN2cv3MatES1_S1_RSt6vectorIS2_INS_6Point_IiEESaIS4_EESaIS6_EERS2_INS_3VecIiLi4EEESaISB_EE
   fun:_Z12processFrameRN2cv3MatES1_S1_jS1_
   fun:_Z12processVideoRN2cv3MatER10MainWindow7QStringS4_j
   fun:_Z15trackVideofilesR10MainWindow7QString
   fun:main
}
{
   cv::circle(cv::_InputOutputArray const&, cv::Point_<int>, int, cv::Scalar_<double> const&, int, int, int)[Memcheck:Cond]
   Memcheck:Cond
   fun:_ZN2cv6circleERKNS_17_InputOutputArrayENS_6Point_IiEEiRKNS_7Scalar_IdEEiii
   fun:_Z14show_histogramRKNSt7__cxx1112basic_stringIcSt11char_traitsIcESaIcEEERKN2cv4Mat_IhEE
   fun:_Z19detectZfishFeaturesRN2cv3MatES1_S1_RSt6vectorIS2_INS_6Point_IiEESaIS4_EESaIS6_EERS2_INS_3VecIiLi4EEESaISB_EE
   fun:_Z12processFrameRN2cv3MatES1_S1_jS1_
   fun:_Z12processVideoRN2cv3MatER10MainWindow7QStringS4_j
   fun:_Z15trackVideofilesR10MainWindow7QString
   fun:main
}
{
   cv::circle(cv::_InputOutputArray const&, cv::Point_<int>, int, cv::Scalar_<double> const&, int, int, int)[Memcheck:Cond]
   Memcheck:Cond
   fun:_ZN2cv6circleERKNS_17_InputOutputArrayENS_6Point_IiEEiRKNS_7Scalar_IdEEiii
   fun:_Z14show_histogramRKNSt7__cxx1112basic_stringIcSt11char_traitsIcESaIcEEERKN2cv4Mat_IhEE
   fun:_Z19detectZfishFeaturesRN2cv3MatES1_S1_RSt6vectorIS2_INS_6Point_IiEESaIS4_EESaIS6_EERS2_INS_3VecIiLi4EEESaISB_EE
   fun:_Z12processFrameRN2cv3MatES1_S1_jS1_
   fun:_Z12processVideoRN2cv3MatER10MainWindow7QStringS4_j
   fun:_Z15trackVideofilesR10MainWindow7QString
   fun:main
}
{
   cv::circle(cv::_InputOutputArray const&, cv::Point_<int>, int, cv::Scalar_<double> const&, int, int, int)[Memcheck:Cond]
   Memcheck:Cond
   fun:_ZN2cv6circleERKNS_17_InputOutputArrayENS_6Point_IiEEiRKNS_7Scalar_IdEEiii
   fun:_Z14show_histogramRKNSt7__cxx1112basic_stringIcSt11char_traitsIcESaIcEEERKN2cv4Mat_IhEE
   fun:_Z19detectZfishFeaturesRN2cv3MatES1_S1_RSt6vectorIS2_INS_6Point_IiEESaIS4_EESaIS6_EERS2_INS_3VecIiLi4EEESaISB_EE
   fun:_Z12processFrameRN2cv3MatES1_S1_jS1_
   fun:_Z12processVideoRN2cv3MatER10MainWindow7QStringS4_j
   fun:_Z15trackVideofilesR10MainWindow7QString
   fun:main
}
{
   cv::circle(cv::_InputOutputArray const&, cv::Point_<int>, int, cv::Scalar_<double> const&, int, int, int)[Memcheck:Value8]
   Memcheck:Value8
   fun:_ZN2cv6circleERKNS_17_InputOutputArrayENS_6Point_IiEEiRKNS_7Scalar_IdEEiii
   fun:_Z14show_histogramRKNSt7__cxx1112basic_stringIcSt11char_traitsIcESaIcEEERKN2cv4Mat_IhEE
   fun:_Z19detectZfishFeaturesRN2cv3MatES1_S1_RSt6vectorIS2_INS_6Point_IiEESaIS4_EESaIS6_EERS2_INS_3VecIiLi4EEESaISB_EE
   fun:_Z12processFrameRN2cv3MatES1_S1_jS1_
   fun:_Z12processVideoRN2cv3MatER10MainWindow7QStringS4_j
   fun:_Z15trackVideofilesR10MainWindow7QString
   fun:main
}
{
   cv::Line2(cv::Mat&, cv::Point_<int>, cv::Point_<int>, void const*)[Memcheck:Value8]
   Memcheck:Value8
   fun:_ZN2cvL5Line2ERNS_3MatENS_6Point_IiEES3_PKv
   fun:_ZN2cvL9ThickLineERNS_3MatENS_6Point_IiEES3_PKviiii
   fun:_ZN2cvL8PolyLineERNS_3MatEPKNS_6Point_IiEEibPKviii.constprop.110
   fun:_ZN2cv7putTextERKNS_17_InputOutputArrayERKNS_6StringENS_6Point_IiEEidNS_7Scalar_IdEEiib
   fun:_Z14show_histogramRKNSt7__cxx1112basic_stringIcSt11char_traitsIcESaIcEEERKN2cv4Mat_IhEE
   fun:_Z19detectZfishFeaturesRN2cv3MatES1_S1_RSt6vectorIS2_INS_6Point_IiEESaIS4_EESaIS6_EERS2_INS_3VecIiLi4EEESaISB_EE
   fun:_Z12processFrameRN2cv3MatES1_S1_jS1_
   fun:_Z12processVideoRN2cv3MatER10MainWindow7QStringS4_j
   fun:_Z15trackVideofilesR10MainWindow7QString
   fun:main
}
{
   cv::Line2(cv::Mat&, cv::Point_<int>, cv::Point_<int>, void const*)[Memcheck:Cond]
   Memcheck:Cond
   fun:_ZN2cvL5Line2ERNS_3MatENS_6Point_IiEES3_PKv
   fun:_ZN2cvL9ThickLineERNS_3MatENS_6Point_IiEES3_PKviiii
   fun:_ZN2cvL8PolyLineERNS_3MatEPKNS_6Point_IiEEibPKviii.constprop.110
   fun:_ZN2cv7putTextERKNS_17_InputOutputArrayERKNS_6StringENS_6Point_IiEEidNS_7Scalar_IdEEiib
   fun:_Z14show_histogramRKNSt7__cxx1112basic_stringIcSt11char_traitsIcESaIcEEERKN2cv4Mat_IhEE
   fun:_Z19detectZfishFeaturesRN2cv3MatES1_S1_RSt6vectorIS2_INS_6Point_IiEESaIS4_EESaIS6_EERS2_INS_3VecIiLi4EEESaISB_EE
   fun:_Z12processFrameRN2cv3MatES1_S1_jS1_
   fun:_Z12processVideoRN2cv3MatER10MainWindow7QStringS4_j
   fun:_Z15trackVideofilesR10MainWindow7QString
   fun:main
}
{
   cv::clipLine(cv::Size_<int>, cv::Point_<int>&, cv::Point_<int>&)[Memcheck:Cond]
   Memcheck:Cond
   fun:_ZN2cv8clipLineENS_5Size_IiEERNS_6Point_IiEES4_
   fun:_ZN2cvL5Line2ERNS_3MatENS_6Point_IiEES3_PKv
   fun:_ZN2cvL9ThickLineERNS_3MatENS_6Point_IiEES3_PKviiii
   fun:_ZN2cvL8PolyLineERNS_3MatEPKNS_6Point_IiEEibPKviii.constprop.110
   fun:_ZN2cv7putTextERKNS_17_InputOutputArrayERKNS_6StringENS_6Point_IiEEidNS_7Scalar_IdEEiib
   fun:_Z14show_histogramRKNSt7__cxx1112basic_stringIcSt11char_traitsIcESaIcEEERKN2cv4Mat_IhEE
   fun:_Z19detectZfishFeaturesRN2cv3MatES1_S1_RSt6vectorIS2_INS_6Point_IiEESaIS4_EESaIS6_EERS2_INS_3VecIiLi4EEESaISB_EE
   fun:_Z12processFrameRN2cv3MatES1_S1_jS1_
   fun:_Z12processVideoRN2cv3MatER10MainWindow7QStringS4_j
   fun:_Z15trackVideofilesR10MainWindow7QString
   fun:main
}
{
   show_histogram(std::__cxx11::basic_string<char, std::char_traits<char>, std::allocator<char> > const&, cv::Mat_<unsigned char> const&)[Memcheck:Cond]
   Memcheck:Cond
   fun:_Z14show_histogramRKNSt7__cxx1112basic_stringIcSt11char_traitsIcESaIcEEERKN2cv4Mat_IhEE
   fun:_Z19detectZfishFeaturesRN2cv3MatES1_S1_RSt6vectorIS2_INS_6Point_IiEESaIS4_EESaIS6_EERS2_INS_3VecIiLi4EEESaISB_EE
   fun:_Z12processFrameRN2cv3MatES1_S1_jS1_
   fun:_Z12processVideoRN2cv3MatER10MainWindow7QStringS4_j
   fun:_Z15trackVideofilesR10MainWindow7QString
   fun:main
}
{
   cv::clipLine(cv::Size_<int>, cv::Point_<int>&, cv::Point_<int>&)[Memcheck:Cond]
   Memcheck:Cond
   fun:_ZN2cv8clipLineENS_5Size_IiEERNS_6Point_IiEES4_
   fun:_ZN2cvL5Line2ERNS_3MatENS_6Point_IiEES3_PKv
   fun:_ZN2cvL9ThickLineERNS_3MatENS_6Point_IiEES3_PKviiii
   fun:_ZN2cvL8PolyLineERNS_3MatEPKNS_6Point_IiEEibPKviii.constprop.110
   fun:_ZN2cv7putTextERKNS_17_InputOutputArrayERKNS_6StringENS_6Point_IiEEidNS_7Scalar_IdEEiib
   fun:_Z14show_histogramRKNSt7__cxx1112basic_stringIcSt11char_traitsIcESaIcEEERKN2cv4Mat_IhEE
   fun:_Z19detectZfishFeaturesRN2cv3MatES1_S1_RSt6vectorIS2_INS_6Point_IiEESaIS4_EESaIS6_EERS2_INS_3VecIiLi4EEESaISB_EE
   fun:_Z12processFrameRN2cv3MatES1_S1_jS1_
   fun:_Z12processVideoRN2cv3MatER10MainWindow7QStringS4_j
   fun:_Z15trackVideofilesR10MainWindow7QString
   fun:main
}
{
   cv::clipLine(cv::Size_<int>, cv::Point_<int>&, cv::Point_<int>&)[Memcheck:Cond]
   Memcheck:Cond
   fun:_ZN2cv8clipLineENS_5Size_IiEERNS_6Point_IiEES4_
   fun:_ZN2cvL5Line2ERNS_3MatENS_6Point_IiEES3_PKv
   fun:_ZN2cvL9ThickLineERNS_3MatENS_6Point_IiEES3_PKviiii
   fun:_ZN2cvL8PolyLineERNS_3MatEPKNS_6Point_IiEEibPKviii.constprop.110
   fun:_ZN2cv7putTextERKNS_17_InputOutputArrayERKNS_6StringENS_6Point_IiEEidNS_7Scalar_IdEEiib
   fun:_Z14show_histogramRKNSt7__cxx1112basic_stringIcSt11char_traitsIcESaIcEEERKN2cv4Mat_IhEE
   fun:_Z19detectZfishFeaturesRN2cv3MatES1_S1_RSt6vectorIS2_INS_6Point_IiEESaIS4_EESaIS6_EERS2_INS_3VecIiLi4EEESaISB_EE
   fun:_Z12processFrameRN2cv3MatES1_S1_jS1_
   fun:_Z12processVideoRN2cv3MatER10MainWindow7QStringS4_j
   fun:_Z15trackVideofilesR10MainWindow7QString
   fun:main
}
{
   cv::clipLine(cv::Size_<int>, cv::Point_<int>&, cv::Point_<int>&)[Memcheck:Cond]
   Memcheck:Cond
   fun:_ZN2cv8clipLineENS_5Size_IiEERNS_6Point_IiEES4_
   fun:_ZN2cvL5Line2ERNS_3MatENS_6Point_IiEES3_PKv
   fun:_ZN2cvL9ThickLineERNS_3MatENS_6Point_IiEES3_PKviiii
   fun:_ZN2cvL8PolyLineERNS_3MatEPKNS_6Point_IiEEibPKviii.constprop.110
   fun:_ZN2cv7putTextERKNS_17_InputOutputArrayERKNS_6StringENS_6Point_IiEEidNS_7Scalar_IdEEiib
   fun:_Z14show_histogramRKNSt7__cxx1112basic_stringIcSt11char_traitsIcESaIcEEERKN2cv4Mat_IhEE
   fun:_Z19detectZfishFeaturesRN2cv3MatES1_S1_RSt6vectorIS2_INS_6Point_IiEESaIS4_EESaIS6_EERS2_INS_3VecIiLi4EEESaISB_EE
   fun:_Z12processFrameRN2cv3MatES1_S1_jS1_
   fun:_Z12processVideoRN2cv3MatER10MainWindow7QStringS4_j
   fun:_Z15trackVideofilesR10MainWindow7QString
   fun:main
}
